target datalayout = "e-m:e-p270:32:32-p271:32:32-p272:64:64-i64:64-i128:128-f80:128-n8:16:32:64-S128"
target triple = "x86_64-pc-linux-gnu"

%struct.prte_oob_base_t = type { i32, i32, i32, i32, i32, %struct.pmix_list_t, i32, %struct.pmix_list_t, i32, i32, i8, ptr, ptr, ptr, ptr, i8, ptr, ptr, ptr, ptr, %struct.pmix_list_t, ptr, i32, %struct.pmix_list_t, %struct.pmix_thread_t, i8, %struct.timeval, [2 x i32], i32, i32, i32, i32, i32 }
%struct.pmix_list_t = type { %struct.pmix_object_t, %struct.pmix_list_item_t, i64 }
%struct.pmix_object_t = type { %union.pthread_mutex_t, ptr, i32, %struct.pmix_tma }
%union.pthread_mutex_t = type { %struct.__pthread_mutex_s }
%struct.__pthread_mutex_s = type { i32, i32, i32, i32, i32, i16, i16, %struct.__pthread_internal_list }
%struct.__pthread_internal_list = type { ptr, ptr }
%struct.pmix_tma = type { ptr, ptr, ptr, ptr, ptr, ptr, ptr, ptr }
%struct.pmix_list_item_t = type { %struct.pmix_object_t, ptr, ptr, i32 }
%struct.pmix_thread_t = type { %struct.pmix_object_t, ptr, ptr, i64 }
%struct.timeval = type { i64, i64 }
%struct.prte_process_info_t = type { %struct.pmix_proc, %struct.pmix_proc, ptr, %struct.pmix_proc, i32, i32, i32, ptr, ptr, i32, i8, ptr, i16, ptr, ptr, i8, ptr, i8 }
%struct.pmix_proc = type { [256 x i8], i32 }
%struct.pmix_output_desc_t = type { i8, i8, i32, i8, i32, ptr, ptr, i32, ptr, i32, i8, i8, i8, i8, ptr, i32, i32 }
%union.__SOCKADDR_ARG = type { ptr }
%struct.sockaddr = type { i16, [14 x i8] }

@prte_oob_base = external global %struct.prte_oob_base_t, align 8
@.str = private unnamed_addr constant [37 x i8] c"PRTE ERROR: %s in file %s at line %d\00", align 1
@.str.1 = private unnamed_addr constant [27 x i8] c"rml/oob/oob_tcp_listener.c\00", align 1
@.str.2 = private unnamed_addr constant [17 x i8] c"help-oob-tcp.txt\00", align 1
@prte_process_info = external global %struct.prte_process_info_t, align 8
@pmix_output_info = external global [0 x %struct.pmix_output_desc_t], align 8
@.str.20 = private unnamed_addr constant [14 x i8] c"accept failed\00", align 1
@.str.21 = private unnamed_addr constant [24 x i8] c"Out of file descriptors\00", align 1
@.str.22 = private unnamed_addr constant [40 x i8] c"Unknown cause; job will try to continue\00", align 1
@.str.27 = private unnamed_addr constant [64 x i8] c"%s connection_event_handler: working connection (%d, %d) %s:%d\0A\00", align 1

; Function Attrs: nounwind uwtable
define internal void @connection_event_handler(i32 noundef %0, i16 noundef signext %1, ptr noundef %2) #0 {
  %4 = alloca i32, align 4
  %5 = alloca i16, align 2
  %6 = alloca ptr, align 8
  %7 = alloca %struct.sockaddr, align 2
  %8 = alloca i32, align 4
  %9 = alloca i32, align 4
  %10 = alloca %union.__SOCKADDR_ARG, align 8
  %11 = alloca i32, align 4
  store i32 %0, ptr %4, align 4, !tbaa !3
  store i16 %1, ptr %5, align 2, !tbaa !45
  store ptr %2, ptr %6, align 8, !tbaa !67
  call void @llvm.lifetime.start.p0(i64 16, ptr %7) #11
  call void @llvm.lifetime.start.p0(i64 4, ptr %8) #11
  store i32 16, ptr %8, align 4, !tbaa !3
  call void @llvm.lifetime.start.p0(i64 4, ptr %9) #11
  %12 = load i32, ptr %4, align 4, !tbaa !3
  store ptr %7, ptr %10, align 8, !tbaa !61
  %13 = getelementptr inbounds nuw %union.__SOCKADDR_ARG, ptr %10, i32 0, i32 0
  %14 = load ptr, ptr %13, align 8
  %15 = call i32 @accept(i32 noundef %12, ptr %14, ptr noundef %8)
  store i32 %15, ptr %9, align 4, !tbaa !3
  %16 = load i32, ptr @prte_oob_base, align 8, !tbaa !55
  %17 = icmp sge i32 %16, 0
  br i1 %17, label %18, label %36

18:                                               ; preds = %3
  %19 = load i32, ptr @prte_oob_base, align 8, !tbaa !55
  %20 = icmp slt i32 %19, 64
  br i1 %20, label %21, label %36

21:                                               ; preds = %18
  %22 = load i32, ptr @prte_oob_base, align 8, !tbaa !55
  %23 = sext i32 %22 to i64
  %24 = getelementptr inbounds [0 x %struct.pmix_output_desc_t], ptr @pmix_output_info, i64 0, i64 %23
  %25 = getelementptr inbounds nuw %struct.pmix_output_desc_t, ptr %24, i32 0, i32 2
  %26 = load i32, ptr %25, align 4, !tbaa !56
  %27 = icmp sge i32 %26, 7
  br i1 %27, label %28, label %36

28:                                               ; preds = %21
  %29 = load i32, ptr @prte_oob_base, align 8, !tbaa !55
  %30 = call ptr @prte_util_print_name_args(ptr noundef @prte_process_info)
  %31 = load i32, ptr %9, align 4, !tbaa !3
  %32 = call ptr @__errno_location() #12
  %33 = load i32, ptr %32, align 4, !tbaa !3
  %34 = call ptr @pmix_net_get_hostname(ptr noundef %7)
  %35 = call i32 @pmix_net_get_port(ptr noundef %7)
  call void (i32, ptr, ...) @pmix_output(i32 noundef %29, ptr noundef @.str.27, ptr noundef %30, i32 noundef %31, i32 noundef %33, ptr noundef %34, i32 noundef %35)
  br label %36

36:                                               ; preds = %28, %21, %18, %3
  %37 = load i32, ptr %9, align 4, !tbaa !3
  %38 = icmp slt i32 %37, 0
  br i1 %38, label %39, label %90

39:                                               ; preds = %36
  %40 = call ptr @__errno_location() #12
  %41 = load i32, ptr %40, align 4, !tbaa !3
  %42 = icmp eq i32 4, %41
  br i1 %42, label %51, label %43

43:                                               ; preds = %39
  %44 = call ptr @__errno_location() #12
  %45 = load i32, ptr %44, align 4, !tbaa !3
  %46 = icmp eq i32 11, %45
  br i1 %46, label %51, label %47

47:                                               ; preds = %43
  %48 = call ptr @__errno_location() #12
  %49 = load i32, ptr %48, align 4, !tbaa !3
  %50 = icmp eq i32 11, %49
  br i1 %50, label %51, label %52

51:                                               ; preds = %47, %43, %39
  store i32 1, ptr %11, align 4
  br label %92

52:                                               ; preds = %47
  %53 = call ptr @__errno_location() #12
  %54 = load i32, ptr %53, align 4, !tbaa !3
  %55 = icmp eq i32 24, %54
  br i1 %55, label %56, label %75

56:                                               ; preds = %52
  br label %57

57:                                               ; preds = %56
  %58 = load i32, ptr %4, align 4, !tbaa !3
  %59 = call i32 @shutdown(i32 noundef %58, i32 noundef 2) #11
  %60 = load i32, ptr %4, align 4, !tbaa !3
  %61 = call i32 @close(i32 noundef %60)
  br label %62

62:                                               ; preds = %57
  br label %63

63:                                               ; preds = %62
  br label %64

64:                                               ; preds = %63
  %65 = call ptr @prte_strerror(i32 noundef 72)
  call void (i32, ptr, ...) @pmix_output(i32 noundef 0, ptr noundef @.str, ptr noundef %65, ptr noundef @.str.1, i32 noundef 775)
  br label %66

66:                                               ; preds = %64
  br label %67

67:                                               ; preds = %66
  %68 = load ptr, ptr getelementptr inbounds nuw (%struct.prte_process_info_t, ptr @prte_process_info, i32 0, i32 7), align 8, !tbaa !80
  %69 = call ptr @__errno_location() #12
  %70 = load i32, ptr %69, align 4, !tbaa !3
  %71 = call ptr @__errno_location() #12
  %72 = load i32, ptr %71, align 4, !tbaa !3
  %73 = call ptr @strerror(i32 noundef %72) #11
  %74 = call i32 (ptr, ptr, i32, ...) @pmix_show_help(ptr noundef @.str.2, ptr noundef @.str.20, i32 noundef 1, ptr noundef %68, i32 noundef %70, ptr noundef %73, ptr noundef @.str.21)
  store i32 1, ptr %11, align 4
  br label %92

75:                                               ; preds = %52
  br label %76

76:                                               ; preds = %75
  %77 = load i32, ptr %4, align 4, !tbaa !3
  %78 = call i32 @shutdown(i32 noundef %77, i32 noundef 2) #11
  %79 = load i32, ptr %4, align 4, !tbaa !3
  %80 = call i32 @close(i32 noundef %79)
  br label %81

81:                                               ; preds = %76
  br label %82

82:                                               ; preds = %81
  %83 = load ptr, ptr getelementptr inbounds nuw (%struct.prte_process_info_t, ptr @prte_process_info, i32 0, i32 7), align 8, !tbaa !80
  %84 = call ptr @__errno_location() #12
  %85 = load i32, ptr %84, align 4, !tbaa !3
  %86 = call ptr @__errno_location() #12
  %87 = load i32, ptr %86, align 4, !tbaa !3
  %88 = call ptr @strerror(i32 noundef %87) #11
  %89 = call i32 (ptr, ptr, i32, ...) @pmix_show_help(ptr noundef @.str.2, ptr noundef @.str.20, i32 noundef 1, ptr noundef %83, i32 noundef %85, ptr noundef %88, ptr noundef @.str.22)
  store i32 1, ptr %11, align 4
  br label %92

90:                                               ; preds = %36
  %91 = load i32, ptr %9, align 4, !tbaa !3
  call void @prte_oob_accept_connection(i32 noundef %91, ptr noundef %7)
  store i32 0, ptr %11, align 4
  br label %92

92:                                               ; preds = %90, %82, %67, %51
  call void @llvm.lifetime.end.p0(i64 4, ptr %9) #11
  call void @llvm.lifetime.end.p0(i64 4, ptr %8) #11
  call void @llvm.lifetime.end.p0(i64 16, ptr %7) #11
  %93 = load i32, ptr %11, align 4
  switch i32 %93, label %95 [
    i32 0, label %94
    i32 1, label %94
  ]

94:                                               ; preds = %92, %92
  ret void

95:                                               ; preds = %92
  unreachable
}