; Function Attrs: nounwind uwtable
define internal void @connection_event_handler(i32 noundef %0, i16 signext %1, ptr readnone captures(none) %2) #0 {
  %4 = alloca %struct.sockaddr, align 2
  %5 = alloca i32, align 4
  call void @llvm.lifetime.start.p0(i64 16, ptr nonnull %4) #13
  call void @llvm.lifetime.start.p0(i64 4, ptr nonnull %5) #13
  store i32 16, ptr %5, align 4, !tbaa !30
  %6 = call i32 @accept(i32 noundef %0, ptr nonnull %4, ptr noundef nonnull %5) #13
  %7 = load i32, ptr @prte_oob_base, align 8, !tbaa !31
  %or.cond = icmp ult i32 %7, 64
  br i1 %or.cond, label %8, label %19

8:                                                ; preds = %3
  %9 = zext nneg i32 %7 to i64
  %10 = getelementptr inbounds nuw [0 x %struct.pmix_output_desc_t], ptr @pmix_output_info, i64 0, i64 %9, i32 2
  %11 = load i32, ptr %10, align 4, !tbaa !32
  %12 = icmp sgt i32 %11, 6
  br i1 %12, label %13, label %19

13:                                               ; preds = %8
  %14 = call ptr @prte_util_print_name_args(ptr noundef nonnull @prte_process_info) #13
  %15 = tail call ptr @__errno_location() #14
  %16 = load i32, ptr %15, align 4, !tbaa !30
  %17 = call ptr @pmix_net_get_hostname(ptr noundef nonnull %4) #13
  %18 = call i32 @pmix_net_get_port(ptr noundef nonnull %4) #13
  call void (i32, ptr, ...) @pmix_output(i32 noundef %7, ptr noundef nonnull @.str.27, ptr noundef %14, i32 noundef %6, i32 noundef %16, ptr noundef %17, i32 noundef %18) #13
  br label %19

19:                                               ; preds = %13, %8, %3
  %20 = icmp slt i32 %6, 0
  br i1 %20, label %21, label %39

21:                                               ; preds = %19
  %22 = tail call ptr @__errno_location() #14
  %23 = load i32, ptr %22, align 4, !tbaa !30
  switch i32 %23, label %32 [
    i32 4, label %40
    i32 11, label %40
    i32 24, label %24
  ]

24:                                               ; preds = %21
  %25 = call i32 @shutdown(i32 noundef %0, i32 noundef 2) #13
  %26 = call i32 @close(i32 noundef %0) #13
  %27 = call ptr @prte_strerror(i32 noundef 72) #13
  call void (i32, ptr, ...) @pmix_output(i32 noundef 0, ptr noundef nonnull @.str, ptr noundef %27, ptr noundef nonnull @.str.1, i32 noundef 775) #13
  %28 = load ptr, ptr getelementptr inbounds nuw (i8, ptr @prte_process_info, i64 800), align 8, !tbaa !82
  %29 = load i32, ptr %22, align 4, !tbaa !30
  %30 = call ptr @strerror(i32 noundef %29) #13
  %31 = call i32 (ptr, ptr, i32, ...) @pmix_show_help(ptr noundef nonnull @.str.2, ptr noundef nonnull @.str.20, i32 noundef 1, ptr noundef %28, i32 noundef %29, ptr noundef %30, ptr noundef nonnull @.str.21) #13
  br label %40

32:                                               ; preds = %21
  %33 = call i32 @shutdown(i32 noundef %0, i32 noundef 2) #13
  %34 = call i32 @close(i32 noundef %0) #13
  %35 = load ptr, ptr getelementptr inbounds nuw (i8, ptr @prte_process_info, i64 800), align 8, !tbaa !82
  %36 = load i32, ptr %22, align 4, !tbaa !30
  %37 = call ptr @strerror(i32 noundef %36) #13
  %38 = call i32 (ptr, ptr, i32, ...) @pmix_show_help(ptr noundef nonnull @.str.2, ptr noundef nonnull @.str.20, i32 noundef 1, ptr noundef %35, i32 noundef %36, ptr noundef %37, ptr noundef nonnull @.str.22) #13
  br label %40

39:                                               ; preds = %19
  call void @prte_oob_accept_connection(i32 noundef %6, ptr noundef nonnull %4) #13
  br label %40

40:                                               ; preds = %21, %21, %39, %32, %24
  call void @llvm.lifetime.end.p0(i64 4, ptr nonnull %5) #13
  call void @llvm.lifetime.end.p0(i64 16, ptr nonnull %4) #13
  ret void
}